target datalayout = "e-m:e-p270:32:32-p271:32:32-p272:64:64-i64:64-i128:128-f80:128-n8:16:32:64-S128"
target triple = "x86_64-pc-linux-gnu"

%class.PhaseValues = type { %class.PhaseTransform, i8, ptr, ptr, [137 x ptr], [137 x ptr], [20 x ptr] }
%class.PhaseTransform = type { ptr, %class.Phase }
%class.Phase = type { i32, ptr }
%class.Node = type <{ ptr, ptr, ptr, i32, i32, i32, i32, i32, i32, i32, [4 x i8] }>
%class.Type = type <{ ptr, ptr, i32, [4 x i8] }>
%class.Type.base = type <{ ptr, ptr, i32 }>
%class.TypeF = type { %class.Type.base, float }
%class.Type_Array = type { ptr, i32, ptr }

@_ZN4Type3TOPE = external global ptr, align 8
@_ZN7TypeInt5CC_LTE = external global ptr, align 8
@_ZN7TypeInt5CC_GTE = external global ptr, align 8
@_ZN7TypeInt5CC_EQE = external global ptr, align 8
@_ZN7TypeInt2CCE = external global ptr, align 8

; Function Attrs: mustprogress nounwind uwtable
define linkonce_odr hidden noundef ptr @_ZNK10Type_Array11fast_lookupEj(ptr noundef nonnull align 8 dereferenceable(24) %0, i32 noundef %1) #1 comdat align 2 {
  %3 = alloca ptr, align 8
  %4 = alloca i32, align 4
  store ptr %0, ptr %3, align 8
  store i32 %1, ptr %4, align 4
  %5 = load ptr, ptr %3, align 8
  %6 = getelementptr inbounds %class.Type_Array, ptr %5, i32 0, i32 2
  %7 = load ptr, ptr %6, align 8
  %8 = load i32, ptr %4, align 4
  %9 = zext i32 %8 to i64
  %10 = getelementptr inbounds ptr, ptr %7, i64 %9
  %11 = load ptr, ptr %10, align 8
  ret ptr %11
}

; Function Attrs: mustprogress nounwind uwtable
define linkonce_odr hidden noundef ptr @_ZNK4Type18isa_float_constantEv(ptr noundef nonnull align 8 dereferenceable(20) %0) #1 comdat align 2 {
  %2 = alloca ptr, align 8
  store ptr %0, ptr %2, align 8
  %3 = load ptr, ptr %2, align 8
  %4 = getelementptr inbounds %class.Type, ptr %3, i32 0, i32 2
  %5 = load i32, ptr %4, align 8
  %6 = icmp eq i32 %5, 32
  br i1 %6, label %7, label %8

7:                                                ; preds = %1
  br label %9

8:                                                ; preds = %1
  br label %9

9:                                                ; preds = %8, %7
  %10 = phi ptr [ %3, %7 ], [ null, %8 ]
  ret ptr %10
}

; Function Attrs: mustprogress nounwind uwtable
define linkonce_odr hidden noundef ptr @_ZNK11PhaseValues4typeEPK4Node(ptr noundef nonnull align 8 dereferenceable(2400) %0, ptr noundef %1) #1 comdat align 2 {
  %3 = alloca ptr, align 8
  %4 = alloca ptr, align 8
  %5 = alloca ptr, align 8
  store ptr %0, ptr %3, align 8
  store ptr %1, ptr %4, align 8
  %6 = load ptr, ptr %3, align 8
  %7 = getelementptr inbounds %class.PhaseValues, ptr %6, i32 0, i32 3
  %8 = load ptr, ptr %7, align 8
  %9 = load ptr, ptr %4, align 8
  %10 = getelementptr inbounds %class.Node, ptr %9, i32 0, i32 7
  %11 = load i32, ptr %10, align 8
  %12 = call noundef ptr @_ZNK10Type_Array11fast_lookupEj(ptr noundef nonnull align 8 dereferenceable(24) %8, i32 noundef %11)
  store ptr %12, ptr %5, align 8
  %13 = load ptr, ptr %5, align 8
  ret ptr %13
}

; Function Attrs: mustprogress nounwind uwtable
define linkonce_odr hidden noundef ptr @_ZNK4Node2inEj(ptr noundef nonnull align 8 dereferenceable(52) %0, i32 noundef %1) #1 comdat align 2 {
  %3 = alloca ptr, align 8
  %4 = alloca i32, align 4
  store ptr %0, ptr %3, align 8
  store i32 %1, ptr %4, align 4
  %5 = load ptr, ptr %3, align 8
  %6 = getelementptr inbounds %class.Node, ptr %5, i32 0, i32 1
  %7 = load ptr, ptr %6, align 8
  %8 = load i32, ptr %4, align 4
  %9 = zext i32 %8 to i64
  %10 = getelementptr inbounds ptr, ptr %7, i64 %9
  %11 = load ptr, ptr %10, align 8
  ret ptr %11
}

; Function Attrs: mustprogress nounwind uwtable
define hidden noundef ptr @_ZNK8CmpFNode5ValueEP8PhaseGVN(ptr noundef nonnull align 8 dereferenceable(52) %0, ptr noundef %1) unnamed_addr #1 align 2 {
  %3 = alloca ptr, align 8
  %4 = alloca ptr, align 8
  %5 = alloca ptr, align 8
  %6 = alloca ptr, align 8
  %7 = alloca ptr, align 8
  %8 = alloca ptr, align 8
  %9 = alloca ptr, align 8
  %10 = alloca ptr, align 8
  %11 = alloca ptr, align 8
  store ptr %0, ptr %4, align 8
  store ptr %1, ptr %5, align 8
  %12 = load ptr, ptr %4, align 8
  %13 = call noundef ptr @_ZNK4Node2inEj(ptr noundef nonnull align 8 dereferenceable(52) %12, i32 noundef 1)
  store ptr %13, ptr %6, align 8
  %14 = call noundef ptr @_ZNK4Node2inEj(ptr noundef nonnull align 8 dereferenceable(52) %12, i32 noundef 2)
  store ptr %14, ptr %7, align 8
  %15 = load ptr, ptr %6, align 8
  %16 = icmp eq ptr %15, %12
  br i1 %16, label %17, label %19

17:                                               ; preds = %2
  %18 = load ptr, ptr @_ZN4Type3TOPE, align 8
  br label %23

19:                                               ; preds = %2
  %20 = load ptr, ptr %5, align 8
  %21 = load ptr, ptr %6, align 8
  %22 = call noundef ptr @_ZNK11PhaseValues4typeEPK4Node(ptr noundef nonnull align 8 dereferenceable(2400) %20, ptr noundef %21)
  br label %23

23:                                               ; preds = %19, %17
  %24 = phi ptr [ %18, %17 ], [ %22, %19 ]
  store ptr %24, ptr %8, align 8
  %25 = load ptr, ptr %8, align 8
  %26 = load ptr, ptr @_ZN4Type3TOPE, align 8
  %27 = icmp eq ptr %25, %26
  br i1 %27, label %28, label %30

28:                                               ; preds = %23
  %29 = load ptr, ptr @_ZN4Type3TOPE, align 8
  store ptr %29, ptr %3, align 8
  br label %94

30:                                               ; preds = %23
  %31 = load ptr, ptr %7, align 8
  %32 = icmp eq ptr %31, %12
  br i1 %32, label %33, label %35

33:                                               ; preds = %30
  %34 = load ptr, ptr @_ZN4Type3TOPE, align 8
  br label %39

35:                                               ; preds = %30
  %36 = load ptr, ptr %5, align 8
  %37 = load ptr, ptr %7, align 8
  %38 = call noundef ptr @_ZNK11PhaseValues4typeEPK4Node(ptr noundef nonnull align 8 dereferenceable(2400) %36, ptr noundef %37)
  br label %39

39:                                               ; preds = %35, %33
  %40 = phi ptr [ %34, %33 ], [ %38, %35 ]
  store ptr %40, ptr %9, align 8
  %41 = load ptr, ptr %9, align 8
  %42 = load ptr, ptr @_ZN4Type3TOPE, align 8
  %43 = icmp eq ptr %41, %42
  br i1 %43, label %44, label %46

44:                                               ; preds = %39
  %45 = load ptr, ptr @_ZN4Type3TOPE, align 8
  store ptr %45, ptr %3, align 8
  br label %94

46:                                               ; preds = %39
  %47 = load ptr, ptr %8, align 8
  %48 = call noundef ptr @_ZNK4Type18isa_float_constantEv(ptr noundef nonnull align 8 dereferenceable(20) %47)
  store ptr %48, ptr %10, align 8
  %49 = load ptr, ptr %9, align 8
  %50 = call noundef ptr @_ZNK4Type18isa_float_constantEv(ptr noundef nonnull align 8 dereferenceable(20) %49)
  store ptr %50, ptr %11, align 8
  %51 = load ptr, ptr %10, align 8
  %52 = icmp ne ptr %51, null
  br i1 %52, label %53, label %56

53:                                               ; preds = %46
  %54 = load ptr, ptr %11, align 8
  %55 = icmp ne ptr %54, null
  br i1 %55, label %58, label %56

56:                                               ; preds = %53, %46
  %57 = load ptr, ptr @_ZN7TypeInt2CCE, align 8
  store ptr %57, ptr %3, align 8
  br label %94

58:                                               ; preds = %53
  %59 = load ptr, ptr %10, align 8
  %60 = load ptr, ptr %59, align 8
  %61 = getelementptr inbounds ptr, ptr %60, i64 7
  %62 = load ptr, ptr %61, align 8
  %63 = call noundef zeroext i1 %62(ptr noundef nonnull align 8 dereferenceable(24) %59)
  br i1 %63, label %70, label %64

64:                                               ; preds = %58
  %65 = load ptr, ptr %11, align 8
  %66 = load ptr, ptr %65, align 8
  %67 = getelementptr inbounds ptr, ptr %66, i64 7
  %68 = load ptr, ptr %67, align 8
  %69 = call noundef zeroext i1 %68(ptr noundef nonnull align 8 dereferenceable(24) %65)
  br i1 %69, label %70, label %72

70:                                               ; preds = %64, %58
  %71 = load ptr, ptr @_ZN7TypeInt5CC_LTE, align 8
  store ptr %71, ptr %3, align 8
  br label %94

72:                                               ; preds = %64
  %73 = load ptr, ptr %10, align 8
  %74 = getelementptr inbounds %class.TypeF, ptr %73, i32 0, i32 1
  %75 = load float, ptr %74, align 4
  %76 = load ptr, ptr %11, align 8
  %77 = getelementptr inbounds %class.TypeF, ptr %76, i32 0, i32 1
  %78 = load float, ptr %77, align 4
  %79 = fcmp olt float %75, %78
  br i1 %79, label %80, label %82

80:                                               ; preds = %72
  %81 = load ptr, ptr @_ZN7TypeInt5CC_LTE, align 8
  store ptr %81, ptr %3, align 8
  br label %94

82:                                               ; preds = %72
  %83 = load ptr, ptr %10, align 8
  %84 = getelementptr inbounds %class.TypeF, ptr %83, i32 0, i32 1
  %85 = load float, ptr %84, align 4
  %86 = load ptr, ptr %11, align 8
  %87 = getelementptr inbounds %class.TypeF, ptr %86, i32 0, i32 1
  %88 = load float, ptr %87, align 4
  %89 = fcmp ogt float %85, %88
  br i1 %89, label %90, label %92

90:                                               ; preds = %82
  %91 = load ptr, ptr @_ZN7TypeInt5CC_GTE, align 8
  store ptr %91, ptr %3, align 8
  br label %94

92:                                               ; preds = %82
  %93 = load ptr, ptr @_ZN7TypeInt5CC_EQE, align 8
  store ptr %93, ptr %3, align 8
  br label %94

94:                                               ; preds = %92, %90, %80, %70, %56, %44, %28
  %95 = load ptr, ptr %3, align 8
  ret ptr %95
}