; Function Attrs: mustprogress nounwind uwtable
define hidden noundef ptr @_ZNK8CmpFNode5ValueEP8PhaseGVN(ptr noundef nonnull readonly align 8 dereferenceable(52) %0, ptr nocapture noundef readonly %1) unnamed_addr #0 align 2 {
  %3 = getelementptr inbounds i8, ptr %0, i64 8
  %4 = load ptr, ptr %3, align 8
  %5 = getelementptr inbounds i8, ptr %4, i64 8
  %6 = load ptr, ptr %5, align 8
  %7 = getelementptr inbounds i8, ptr %4, i64 16
  %8 = load ptr, ptr %7, align 8
  %9 = icmp eq ptr %6, %0
  br i1 %9, label %19, label %10

10:                                               ; preds = %2
  %11 = getelementptr inbounds i8, ptr %1, i64 40
  %12 = load ptr, ptr %11, align 8
  %13 = getelementptr inbounds i8, ptr %6, i64 40
  %14 = load i32, ptr %13, align 8
  %15 = getelementptr inbounds i8, ptr %12, i64 16
  %16 = load ptr, ptr %15, align 8
  %17 = zext i32 %14 to i64
  %18 = getelementptr inbounds ptr, ptr %16, i64 %17
  br label %19

19:                                               ; preds = %2, %10
  %.in = phi ptr [ %18, %10 ], [ @_ZN4Type3TOPE, %2 ]
  %20 = load ptr, ptr %.in, align 8
  %21 = load ptr, ptr @_ZN4Type3TOPE, align 8
  %22 = icmp eq ptr %20, %21
  %23 = icmp eq ptr %8, %0
  %or.cond32 = select i1 %22, i1 true, i1 %23
  br i1 %or.cond32, label %.thread, label %24

24:                                               ; preds = %19
  %25 = getelementptr inbounds i8, ptr %1, i64 40
  %26 = load ptr, ptr %25, align 8
  %27 = getelementptr inbounds i8, ptr %8, i64 40
  %28 = load i32, ptr %27, align 8
  %29 = getelementptr inbounds i8, ptr %26, i64 16
  %30 = load ptr, ptr %29, align 8
  %31 = zext i32 %28 to i64
  %32 = getelementptr inbounds ptr, ptr %30, i64 %31
  %33 = load ptr, ptr %32, align 8
  %34 = icmp eq ptr %33, %21
  br i1 %34, label %.thread, label %35

35:                                               ; preds = %24
  %36 = getelementptr inbounds i8, ptr %20, i64 16
  %37 = load i32, ptr %36, align 8
  %38 = icmp eq i32 %37, 32
  %..i = select i1 %38, ptr %20, ptr null
  %39 = getelementptr inbounds i8, ptr %33, i64 16
  %40 = load i32, ptr %39, align 8
  %41 = icmp eq i32 %40, 32
  %..i31 = select i1 %41, ptr %33, ptr null
  %42 = icmp ne ptr %..i, null
  %43 = icmp ne ptr %..i31, null
  %or.cond = and i1 %42, %43
  br i1 %or.cond, label %46, label %44

44:                                               ; preds = %35
  %45 = load ptr, ptr @_ZN7TypeInt2CCE, align 8
  br label %.thread

46:                                               ; preds = %35
  %47 = load ptr, ptr %..i, align 8
  %48 = getelementptr inbounds i8, ptr %47, i64 56
  %49 = load ptr, ptr %48, align 8
  %50 = tail call noundef zeroext i1 %49(ptr noundef nonnull align 8 dereferenceable(24) %..i) #10
  br i1 %50, label %56, label %51

51:                                               ; preds = %46
  %52 = load ptr, ptr %..i31, align 8
  %53 = getelementptr inbounds i8, ptr %52, i64 56
  %54 = load ptr, ptr %53, align 8
  %55 = tail call noundef zeroext i1 %54(ptr noundef nonnull align 8 dereferenceable(24) %..i31) #10
  br i1 %55, label %56, label %58

56:                                               ; preds = %51, %46
  %57 = load ptr, ptr @_ZN7TypeInt5CC_LTE, align 8
  br label %.thread

58:                                               ; preds = %51
  %59 = getelementptr inbounds i8, ptr %..i, i64 20
  %60 = load float, ptr %59, align 4
  %61 = getelementptr inbounds i8, ptr %..i31, i64 20
  %62 = load float, ptr %61, align 4
  %63 = fcmp olt float %60, %62
  br i1 %63, label %64, label %66

64:                                               ; preds = %58
  %65 = load ptr, ptr @_ZN7TypeInt5CC_LTE, align 8
  br label %.thread

66:                                               ; preds = %58
  %67 = fcmp ogt float %60, %62
  br i1 %67, label %68, label %70

68:                                               ; preds = %66
  %69 = load ptr, ptr @_ZN7TypeInt5CC_GTE, align 8
  br label %.thread

70:                                               ; preds = %66
  %71 = load ptr, ptr @_ZN7TypeInt5CC_EQE, align 8
  br label %.thread

.thread:                                          ; preds = %24, %19, %70, %68, %64, %56, %44
  %.0 = phi ptr [ %57, %56 ], [ %65, %64 ], [ %69, %68 ], [ %71, %70 ], [ %45, %44 ], [ %21, %19 ], [ %21, %24 ]
  ret ptr %.0
}